; Function Attrs: mustprogress nounwind uwtable
define internal fastcc void @_ZL19DecodeVecShiftR8ImmRN4llvm6MCInstEjmPKNS_14MCDisassemblerE(ptr noundef nonnull align 8 dereferenceable(128) %0, i32 noundef %1) unnamed_addr #0 {
  %3 = getelementptr inbounds nuw i8, ptr %0, i64 16
  %4 = tail call noundef i64 @_ZNK4llvm15SmallVectorBaseIjE4sizeEv(ptr noundef nonnull align 8 dereferenceable(16) %3) #13
  %5 = add i64 %4, 1
  %6 = tail call noundef i64 @_ZNK4llvm15SmallVectorBaseIjE8capacityEv(ptr noundef nonnull align 8 dereferenceable(16) %3) #13
  %.not.i.i.i.i.i = icmp ugt i64 %5, %6
  br i1 %.not.i.i.i.i.i, label %7, label %_ZL18DecodeVecShiftRImmRN4llvm6MCInstEjj.exit

7:                                                ; preds = %2
  %8 = getelementptr inbounds nuw i8, ptr %0, i64 32
  tail call void @_ZN4llvm15SmallVectorBaseIjE8grow_podEPvmm(ptr noundef nonnull align 8 dereferenceable(16) %3, ptr noundef nonnull %8, i64 noundef %5, i64 noundef 16) #13
  br label %_ZL18DecodeVecShiftRImmRN4llvm6MCInstEjj.exit

_ZL18DecodeVecShiftRImmRN4llvm6MCInstEjj.exit:    ; preds = %2, %7
  %9 = sub i32 8, %1
  %10 = zext i32 %9 to i64
  %11 = load ptr, ptr %3, align 8
  %12 = tail call noundef i64 @_ZNK4llvm15SmallVectorBaseIjE4sizeEv(ptr noundef nonnull align 8 dereferenceable(16) %3) #13
  %13 = getelementptr inbounds %"class.llvm::MCOperand", ptr %11, i64 %12
  store i8 2, ptr %13, align 1
  %.sroa.22.0..sroa_idx.i.i.i = getelementptr inbounds nuw i8, ptr %13, i64 8
  store i64 %10, ptr %.sroa.22.0..sroa_idx.i.i.i, align 1
  %14 = tail call noundef i64 @_ZNK4llvm15SmallVectorBaseIjE4sizeEv(ptr noundef nonnull align 8 dereferenceable(16) %3) #13
  %15 = add i64 %14, 1
  tail call void @_ZN4llvm15SmallVectorBaseIjE8set_sizeEm(ptr noundef nonnull align 8 dereferenceable(16) %3, i64 noundef %15) #13
  ret void
}